target datalayout = "e-m:e-p270:32:32-p271:32:32-p272:64:64-i64:64-i128:128-f80:128-n8:16:32:64-S128"
target triple = "x86_64-pc-linux-gnu"

%class.cmCursesStringWidget = type <{ %class.cmCursesWidget.base, i8, [3 x i8], %"class.std::__cxx11::basic_string", i8, [7 x i8] }>
%class.cmCursesWidget.base = type <{ ptr, i32, [4 x i8], %"class.std::__cxx11::basic_string", ptr, i32 }>
%"class.std::__cxx11::basic_string" = type { %"struct.std::__cxx11::basic_string<char>::_Alloc_hider", i64, %union.anon }
%"struct.std::__cxx11::basic_string<char>::_Alloc_hider" = type { ptr }
%union.anon = type { i64, [8 x i8] }
%class.cmCursesWidget = type <{ ptr, i32, [4 x i8], %"class.std::__cxx11::basic_string", ptr, i32, [4 x i8] }>
%class.cmCursesForm = type { ptr, ptr }

@.str = private unnamed_addr constant [28 x i8] c"String widget leaving edit.\00", align 1
@.str.1 = private unnamed_addr constant [29 x i8] c"String widget entering edit.\00", align 1

; Function Attrs: mustprogress nounwind uwtable
define linkonce_odr dso_local noundef ptr @_ZN12cmCursesForm7GetFormEv(ptr noundef nonnull align 8 dereferenceable(16) %0) #3 comdat align 2 {
  %2 = alloca ptr, align 8
  store ptr %0, ptr %2, align 8
  %3 = load ptr, ptr %2, align 8
  %4 = getelementptr inbounds %class.cmCursesForm, ptr %3, i32 0, i32 1
  %5 = load ptr, ptr %4, align 8
  ret ptr %5
}

; Function Attrs: mustprogress uwtable
define dso_local void @_ZN20cmCursesStringWidget8OnReturnEP16cmCursesMainFormP7_win_st(ptr noundef nonnull align 8 dereferenceable(97) %0, ptr noundef %1, ptr noundef %2) unnamed_addr #0 align 2 {
  %4 = alloca ptr, align 8
  %5 = alloca ptr, align 8
  %6 = alloca ptr, align 8
  %7 = alloca ptr, align 8
  store ptr %0, ptr %4, align 8
  store ptr %1, ptr %5, align 8
  store ptr %2, ptr %6, align 8
  %8 = load ptr, ptr %4, align 8
  %9 = getelementptr inbounds %class.cmCursesStringWidget, ptr %8, i32 0, i32 1
  %10 = load i8, ptr %9, align 4
  %11 = trunc i8 %10 to i1
  br i1 %11, label %12, label %23

12:                                               ; preds = %3
  call void @_ZN12cmCursesForm10LogMessageEPKc(ptr noundef @.str)
  %13 = getelementptr inbounds %class.cmCursesStringWidget, ptr %8, i32 0, i32 1
  store i8 0, ptr %13, align 4
  %14 = load ptr, ptr %5, align 8
  call void @_ZN16cmCursesMainForm9PrintKeysEi(ptr noundef nonnull align 8 dereferenceable(297) %14, i32 noundef 0)
  %15 = getelementptr inbounds %class.cmCursesStringWidget, ptr %8, i32 0, i32 3
  call void @_ZNSt7__cxx1112basic_stringIcSt11char_traitsIcESaIcEE5clearEv(ptr noundef nonnull align 8 dereferenceable(32) %15) #6
  %16 = load ptr, ptr %5, align 8
  %17 = call noundef ptr @_ZN12cmCursesForm7GetFormEv(ptr noundef nonnull align 8 dereferenceable(16) %16)
  store ptr %17, ptr %7, align 8
  %18 = load ptr, ptr %7, align 8
  %19 = call i32 @form_driver(ptr noundef %18, i32 noundef 516)
  %20 = load ptr, ptr %7, align 8
  %21 = call i32 @form_driver(ptr noundef %20, i32 noundef 517)
  %22 = getelementptr inbounds %class.cmCursesStringWidget, ptr %8, i32 0, i32 4
  store i8 1, ptr %22, align 8
  br label %31

23:                                               ; preds = %3
  call void @_ZN12cmCursesForm10LogMessageEPKc(ptr noundef @.str.1)
  %24 = getelementptr inbounds %class.cmCursesStringWidget, ptr %8, i32 0, i32 1
  store i8 1, ptr %24, align 4
  %25 = load ptr, ptr %5, align 8
  call void @_ZN16cmCursesMainForm9PrintKeysEi(ptr noundef nonnull align 8 dereferenceable(297) %25, i32 noundef 0)
  %26 = getelementptr inbounds %class.cmCursesWidget, ptr %8, i32 0, i32 4
  %27 = load ptr, ptr %26, align 8
  %28 = call ptr @field_buffer(ptr noundef %27, i32 noundef 0)
  %29 = getelementptr inbounds %class.cmCursesStringWidget, ptr %8, i32 0, i32 3
  %30 = call noundef nonnull align 8 dereferenceable(32) ptr @_ZNSt7__cxx1112basic_stringIcSt11char_traitsIcESaIcEEaSEPKc(ptr noundef nonnull align 8 dereferenceable(32) %29, ptr noundef %28)
  br label %31

31:                                               ; preds = %23, %12
  ret void
}