; Function Attrs: mustprogress uwtable
define dso_local void @_ZN20cmCursesStringWidget8OnReturnEP16cmCursesMainFormP7_win_st(ptr noundef nonnull align 8 dereferenceable(97) %0, ptr noundef %1, ptr nocapture readnone %2) unnamed_addr #0 align 2 {
  %4 = getelementptr inbounds i8, ptr %0, i64 60
  %5 = load i8, ptr %4, align 4
  %6 = and i8 %5, 1
  %.not = icmp eq i8 %6, 0
  br i1 %.not, label %14, label %7

7:                                                ; preds = %3
  tail call void @_ZN12cmCursesForm10LogMessageEPKc(ptr noundef nonnull @.str)
  store i8 0, ptr %4, align 4
  tail call void @_ZN16cmCursesMainForm9PrintKeysEi(ptr noundef nonnull align 8 dereferenceable(297) %1, i32 noundef 0)
  %8 = getelementptr inbounds i8, ptr %0, i64 64
  tail call void @_ZNSt7__cxx1112basic_stringIcSt11char_traitsIcESaIcEE5clearEv(ptr noundef nonnull align 8 dereferenceable(32) %8) #8
  %9 = getelementptr inbounds i8, ptr %1, i64 8
  %10 = load ptr, ptr %9, align 8
  %11 = tail call i32 @form_driver(ptr noundef %10, i32 noundef 516)
  %12 = tail call i32 @form_driver(ptr noundef %10, i32 noundef 517)
  %13 = getelementptr inbounds i8, ptr %0, i64 96
  store i8 1, ptr %13, align 8
  br label %20

14:                                               ; preds = %3
  tail call void @_ZN12cmCursesForm10LogMessageEPKc(ptr noundef nonnull @.str.1)
  store i8 1, ptr %4, align 4
  tail call void @_ZN16cmCursesMainForm9PrintKeysEi(ptr noundef nonnull align 8 dereferenceable(297) %1, i32 noundef 0)
  %15 = getelementptr inbounds i8, ptr %0, i64 48
  %16 = load ptr, ptr %15, align 8
  %17 = tail call ptr @field_buffer(ptr noundef %16, i32 noundef 0)
  %18 = getelementptr inbounds i8, ptr %0, i64 64
  %19 = tail call noundef nonnull align 8 dereferenceable(32) ptr @_ZNSt7__cxx1112basic_stringIcSt11char_traitsIcESaIcEEaSEPKc(ptr noundef nonnull align 8 dereferenceable(32) %18, ptr noundef %17)
  br label %20

20:                                               ; preds = %14, %7
  ret void
}